target datalayout = "e-m:e-p270:32:32-p271:32:32-p272:64:64-i64:64-i128:128-f80:128-n8:16:32:64-S128"
target triple = "x86_64-unknown-linux-gnu"

%struct.mi_os_mem_config_s = type { i64, i64, i64, i8, i8, i8 }

@mi_os_mem_config = internal global %struct.mi_os_mem_config_s { i64 4096, i64 0, i64 4096, i8 1, i8 0, i8 1 }, align 8

; Function Attrs: nounwind uwtable
define hidden zeroext i1 @_mi_os_use_large_page(i64 noundef %size, i64 noundef %alignment) #0 {
entry:
  %retval = alloca i1, align 1
  %size.addr = alloca i64, align 8
  %alignment.addr = alloca i64, align 8
  store i64 %size, ptr %size.addr, align 8
  store i64 %alignment, ptr %alignment.addr, align 8
  %0 = getelementptr inbounds %struct.mi_os_mem_config_s, ptr @mi_os_mem_config, i32 0, i32 1
  %1 = load i64, ptr %0, align 8
  %cmp = icmp eq i64 %1, 0
  br i1 %cmp, label %if.then, label %lor.lhs.false

lor.lhs.false:                                    ; preds = %entry
  %call = call zeroext i1 @mi_option_is_enabled(i32 noundef 6) #5
  br i1 %call, label %if.end, label %if.then

if.then:                                          ; preds = %lor.lhs.false, %entry
  store i1 false, ptr %retval, align 1
  br label %return

if.end:                                           ; preds = %lor.lhs.false
  %2 = load i64, ptr %size.addr, align 8
  %3 = getelementptr inbounds %struct.mi_os_mem_config_s, ptr @mi_os_mem_config, i32 0, i32 1
  %4 = load i64, ptr %3, align 8
  %rem = urem i64 %2, %4
  %cmp1 = icmp eq i64 %rem, 0
  br i1 %cmp1, label %land.rhs, label %land.end

land.rhs:                                         ; preds = %if.end
  %5 = load i64, ptr %alignment.addr, align 8
  %6 = getelementptr inbounds %struct.mi_os_mem_config_s, ptr @mi_os_mem_config, i32 0, i32 1
  %7 = load i64, ptr %6, align 8
  %rem2 = urem i64 %5, %7
  %cmp3 = icmp eq i64 %rem2, 0
  br label %land.end

land.end:                                         ; preds = %land.rhs, %if.end
  %8 = phi i1 [ false, %if.end ], [ %cmp3, %land.rhs ]
  store i1 %8, ptr %retval, align 1
  br label %return

return:                                           ; preds = %land.end, %if.then
  %9 = load i1, ptr %retval, align 1
  ret i1 %9
}