; Function Attrs: nounwind uwtable
define hidden zeroext i1 @_mi_os_use_large_page(i64 noundef %size, i64 noundef %alignment) local_unnamed_addr #1 {
entry:
  %0 = load i64, ptr getelementptr inbounds nuw (i8, ptr @mi_os_mem_config, i64 8), align 8
  %cmp = icmp eq i64 %0, 0
  br i1 %cmp, label %return, label %lor.lhs.false

lor.lhs.false:                                    ; preds = %entry
  %call = tail call zeroext i1 @mi_option_is_enabled(i32 noundef 6) #7
  br i1 %call, label %if.end, label %return

if.end:                                           ; preds = %lor.lhs.false
  %1 = load i64, ptr getelementptr inbounds nuw (i8, ptr @mi_os_mem_config, i64 8), align 8
  %rem = urem i64 %size, %1
  %cmp1 = icmp eq i64 %rem, 0
  br i1 %cmp1, label %land.rhs, label %return

land.rhs:                                         ; preds = %if.end
  %rem2 = urem i64 %alignment, %1
  %cmp3 = icmp eq i64 %rem2, 0
  br label %return

return:                                           ; preds = %if.end, %land.rhs, %entry, %lor.lhs.false
  %retval.0 = phi i1 [ false, %lor.lhs.false ], [ false, %entry ], [ false, %if.end ], [ %cmp3, %land.rhs ]
  ret i1 %retval.0
}